(dp0
S'OriginalConfig'
p1
ccopy_reg
_reconstructor
p2
(cWMCore.Configuration
Configuration
p3
c__builtin__
object
p4
Ntp5
Rp6
(dp7
S'Site'
p8
g2
(cWMCore.Configuration
ConfigSection
p9
g4
Ntp10
Rp11
(dp12
S'_internal_skipChecks'
p13
I00
sS'_internal_documentation'
p14
S''
p15
sS'_internal_settings'
p16
c__builtin__
set
p17
((lp18
S'storageSite'
p19
atp20
Rp21
sS'_internal_name'
p22
g8
sS'_internal_docstrings'
p23
(dp24
sS'_internal_children'
p25
g17
((lp26
tp27
Rp28
sg19
S'T2_CH_CERN'
p29
sS'_internal_parent_ref'
p30
NsbsS'Data'
p31
g2
(g9
g4
Ntp32
Rp33
(dp34
S'inputDataset'
p35
S'/DoubleMuon/Run2018A-UL2018_MiniAODv2_NanoAODv9-v1/NANOAOD'
p36
sg13
I00
sS'splitting'
p37
S'FileBased'
p38
sS'unitsPerJob'
p39
I2
sg14
g15
sg16
g17
((lp40
g35
aS'publication'
p41
ag39
aS'inputDBS'
p42
ag37
aS'outLFNDirBase'
p43
atp44
Rp45
sg22
g31
sg42
S'global'
p46
sg23
(dp47
sg25
g17
((lp48
tp49
Rp50
sg43
S'/store/group/phys_smp/vbfA/Hugo_test3/crab/mm'
p51
sg30
Nsg41
I00
sbsS'_internal_sections'
p52
(lp53
S'General'
p54
ag31
ag8
aS'JobType'
p55
asg55
g2
(g9
g4
Ntp56
Rp57
(dp58
g13
I00
sS'scriptArgs'
p59
(lp60
S'--inputfiles=crab'
p61
aS'--dataSet=/DoubleMuon/Run2018A-UL2018_MiniAODv2_NanoAODv9-v1/NANOAOD'
p62
aS'--finalState=169'
p63
asg14
g15
sg16
g17
((lp64
g59
aS'scriptExe'
p65
aS'pluginName'
p66
aS'sendPythonFolder'
p67
aS'psetName'
p68
aS'inputFiles'
p69
atp70
Rp71
sg22
g55
sg65
S'crab_script.sh'
p72
sg23
(dp73
sg67
I01
sg66
S'Analysis'
p74
sg25
g17
((lp75
tp76
Rp77
sg68
S'PSet.py'
p78
sg30
Nsg69
(lp79
S'/afs/cern.ch/user/h/hbecerri/public/Vjj/CMSSW_10_2_13/src/PhysicsTools/NanoAODTools/scripts/haddnano.py'
p80
asbsg54
g2
(g9
g4
Ntp81
Rp82
(dp83
S'transferLogs'
p84
I01
sg13
I00
sg14
g15
sg16
g17
((lp85
g84
aS'workArea'
p86
aS'requestName'
p87
atp88
Rp89
sg22
g54
sg23
(dp90
sg25
g17
((lp91
tp92
Rp93
sg87
S'DoubleMuon_2018_A_v1'
p94
sg30
Nsg86
S'/afs/cern.ch/user/h/hbecerri/public/Vjj/CMSSW_10_2_13/src/UserCode/VJJSkimmer/crab/mm/crab_2018'
p95
sbsbsS'voGroup'
p96
g15
sS'Server'
p97
S'cmsweb.cern.ch'
p98
sS'instance'
p99
S'prod'
p100
sS'RequestName'
p101
V221021_095849:hbecerri_crab_DoubleMuon_2018_A_v1
p102
sS'voRole'
p103
S'NULL'
p104
sS'Port'
p105
g15
s.