(dp0
S'OriginalConfig'
p1
ccopy_reg
_reconstructor
p2
(cWMCore.Configuration
Configuration
p3
c__builtin__
object
p4
Ntp5
Rp6
(dp7
S'Site'
p8
g2
(cWMCore.Configuration
ConfigSection
p9
g4
Ntp10
Rp11
(dp12
S'_internal_skipChecks'
p13
I00
sS'_internal_documentation'
p14
S''
p15
sS'_internal_settings'
p16
c__builtin__
set
p17
((lp18
S'storageSite'
p19
atp20
Rp21
sS'_internal_name'
p22
g8
sS'_internal_docstrings'
p23
(dp24
sS'_internal_children'
p25
g17
((lp26
tp27
Rp28
sg19
S'T2_CH_CERN'
p29
sS'_internal_parent_ref'
p30
NsbsS'Data'
p31
g2
(g9
g4
Ntp32
Rp33
(dp34
S'inputDataset'
p35
S'/G1Jet_LHEGpT-100To150_TuneCP5_13TeV-amcatnlo-pythia8/RunIISummer20UL17NanoAODv9-106X_mc2017_realistic_v9-v1/NANOAODSIM'
p36
sS'allowNonValidInputDataset'
p37
I01
sg13
I00
sS'splitting'
p38
S'FileBased'
p39
sS'unitsPerJob'
p40
I2
sg14
g15
sg16
g17
((lp41
g35
ag37
aS'publication'
p42
ag40
aS'inputDBS'
p43
ag38
aS'outLFNDirBase'
p44
atp45
Rp46
sg22
g31
sg43
S'global'
p47
sg23
(dp48
sg25
g17
((lp49
tp50
Rp51
sg44
S'/store/group/phys_smp/vbfA/yian/crab/gamma'
p52
sg30
Nsg42
I00
sbsS'_internal_sections'
p53
(lp54
S'General'
p55
ag31
ag8
aS'JobType'
p56
asg56
g2
(g9
g4
Ntp57
Rp58
(dp59
g13
I00
sS'scriptArgs'
p60
(lp61
S'--inputfiles=crab'
p62
aS'--dataSet=/G1Jet_LHEGpT-100To150_TuneCP5_13TeV-amcatnlo-pythia8/RunIISummer20UL17NanoAODv9-106X_mc2017_realistic_v9-v1/NANOAODSIM'
p63
aS'--finalState=22'
p64
asg14
g15
sg16
g17
((lp65
g60
aS'scriptExe'
p66
aS'pluginName'
p67
aS'sendPythonFolder'
p68
aS'psetName'
p69
aS'inputFiles'
p70
atp71
Rp72
sg22
g56
sg66
S'crab_script.sh'
p73
sg23
(dp74
sg68
I01
sg67
S'Analysis'
p75
sg25
g17
((lp76
tp77
Rp78
sg69
S'PSet.py'
p79
sg30
Nsg70
(lp80
S'/afs/cern.ch/work/y/yian/work/ewk_ajj/CMSSW_10_6_29/src/PhysicsTools/NanoAODTools/scripts/haddnano.py'
p81
asbsg55
g2
(g9
g4
Ntp82
Rp83
(dp84
S'transferLogs'
p85
I01
sg13
I00
sg14
g15
sg16
g17
((lp86
g85
aS'workArea'
p87
aS'requestName'
p88
atp89
Rp90
sg22
g55
sg23
(dp91
sg25
g17
((lp92
tp93
Rp94
sg88
S'G1Jet_LHEGpT-100To150_TuneCP5_13TeV-amcatnlo-pythia8_2017_v1'
p95
sg30
Nsg87
S'/afs/cern.ch/work/y/yian/work/ewk_ajj/CMSSW_10_6_29/src/UserCode/VJJSkimmer/crab/gamma/crab_2017'
p96
sbsbsS'voGroup'
p97
g15
sS'Server'
p98
S'cmsweb.cern.ch'
p99
sS'instance'
p100
S'prod'
p101
sS'RequestName'
p102
V221220_163153:yian_crab_G1Jet_LHEGpT-100To150_TuneCP5_13TeV-amcatnlo-pythia8_2017_v1
p103
sS'voRole'
p104
S'NULL'
p105
sS'Port'
p106
g15
s.